target datalayout = "e-m:e-p270:32:32-p271:32:32-p272:64:64-i64:64-i128:128-f80:128-n8:16:32:64-S128"
target triple = "x86_64-pc-linux-gnu"

%"class.Imf_3_4::Context" = type { %"class.std::shared_ptr" }
%"class.std::shared_ptr" = type { %"class.std::__shared_ptr" }
%"class.std::__shared_ptr" = type { ptr, %"class.std::__shared_count" }
%"class.std::__shared_count" = type { ptr }
%"class.std::__cxx11::basic_stringstream" = type { %"class.std::basic_iostream.base", %"class.std::__cxx11::basic_stringbuf", %"class.std::basic_ios" }
%"class.std::basic_iostream.base" = type { %"class.std::basic_istream.base", %"class.std::basic_ostream.base" }
%"class.std::basic_istream.base" = type { ptr, i64 }
%"class.std::basic_ostream.base" = type { ptr }
%"class.std::__cxx11::basic_stringbuf" = type { %"class.std::basic_streambuf", i32, %"class.std::__cxx11::basic_string" }
%"class.std::basic_streambuf" = type { ptr, ptr, ptr, ptr, ptr, ptr, ptr, %"class.std::locale" }
%"class.std::locale" = type { ptr }
%"class.std::__cxx11::basic_string" = type { %"struct.std::__cxx11::basic_string<char>::_Alloc_hider", i64, %union.anon }
%"struct.std::__cxx11::basic_string<char>::_Alloc_hider" = type { ptr }
%union.anon = type { i64, [8 x i8] }
%"class.std::basic_ios" = type { %"class.std::ios_base", ptr, i8, i8, ptr, ptr, ptr, ptr }
%"class.std::ios_base" = type { ptr, i64, i64, i32, i32, i32, ptr, %"struct.std::ios_base::_Words", [8 x %"struct.std::ios_base::_Words"], i32, ptr, %"class.std::locale" }
%"struct.std::ios_base::_Words" = type { ptr, i64 }

@_ZTIN7Iex_3_46ArgExcE = external constant ptr
@.str.9 = private unnamed_addr constant [2 x i8] c"'\00", align 1
@.str.11 = private unnamed_addr constant [11 x i8] c" in file '\00", align 1
@.str.16 = private unnamed_addr constant [31 x i8] c"Unable to get attribute index \00", align 1
@.str.17 = private unnamed_addr constant [11 x i8] c" for part \00", align 1

; Function Attrs: mustprogress nounwind uwtable
define linkonce_odr hidden noundef ptr @_ZNKSt12__shared_ptrIP19_priv_exr_context_tLN9__gnu_cxx12_Lock_policyE2EE3getEv(ptr noundef nonnull align 8 dereferenceable(16) %0) #7 comdat align 2 {
  %2 = alloca ptr, align 8
  store ptr %0, ptr %2, align 8, !tbaa !21
  %3 = load ptr, ptr %2, align 8
  %4 = getelementptr inbounds nuw %"class.std::__shared_ptr", ptr %3, i32 0, i32 0
  %5 = load ptr, ptr %4, align 8, !tbaa !23
  ret ptr %5
}

; Function Attrs: mustprogress nounwind uwtable
define linkonce_odr hidden noundef ptr @_ZNKSt19__shared_ptr_accessIP19_priv_exr_context_tLN9__gnu_cxx12_Lock_policyE2ELb0ELb0EE6_M_getEv(ptr noundef nonnull align 1 dereferenceable(1) %0) #7 comdat align 2 {
  %2 = alloca ptr, align 8
  store ptr %0, ptr %2, align 8, !tbaa !37
  %3 = load ptr, ptr %2, align 8
  %4 = call noundef ptr @_ZNKSt12__shared_ptrIP19_priv_exr_context_tLN9__gnu_cxx12_Lock_policyE2EE3getEv(ptr noundef nonnull align 8 dereferenceable(16) %3) #3
  ret ptr %4
}

; Function Attrs: mustprogress nounwind uwtable
define linkonce_odr hidden noundef nonnull align 8 dereferenceable(8) ptr @_ZNKSt19__shared_ptr_accessIP19_priv_exr_context_tLN9__gnu_cxx12_Lock_policyE2ELb0ELb0EEdeEv(ptr noundef nonnull align 1 dereferenceable(1) %0) #7 comdat align 2 {
  %2 = alloca ptr, align 8
  store ptr %0, ptr %2, align 8, !tbaa !37
  %3 = load ptr, ptr %2, align 8
  br label %4

4:                                                ; preds = %1
  br label %5

5:                                                ; preds = %4
  br label %6

6:                                                ; preds = %5
  %7 = call noundef ptr @_ZNKSt19__shared_ptr_accessIP19_priv_exr_context_tLN9__gnu_cxx12_Lock_policyE2ELb0ELb0EE6_M_getEv(ptr noundef nonnull align 1 dereferenceable(1) %3) #3
  ret ptr %7
}

; Function Attrs: mustprogress uwtable
define noundef ptr @_ZNK7Imf_3_47Context7getAttrEii(ptr noundef nonnull align 8 dereferenceable(16) %0, i32 noundef %1, i32 noundef %2) #4 align 2 personality ptr @__gxx_personality_v0 {
  %4 = alloca ptr, align 8
  %5 = alloca i32, align 4
  %6 = alloca i32, align 4
  %7 = alloca ptr, align 8
  %8 = alloca %"class.std::__cxx11::basic_stringstream", align 8
  %9 = alloca ptr, align 8
  %10 = alloca i32, align 4
  store ptr %0, ptr %4, align 8, !tbaa !3
  store i32 %1, ptr %5, align 4, !tbaa !19
  store i32 %2, ptr %6, align 4, !tbaa !19
  %11 = load ptr, ptr %4, align 8
  call void @llvm.lifetime.start.p0(i64 8, ptr %7) #3
  store ptr null, ptr %7, align 8, !tbaa !41
  %12 = getelementptr inbounds nuw %"class.Imf_3_4::Context", ptr %11, i32 0, i32 0
  %13 = call noundef nonnull align 8 dereferenceable(8) ptr @_ZNKSt19__shared_ptr_accessIP19_priv_exr_context_tLN9__gnu_cxx12_Lock_policyE2ELb0ELb0EEdeEv(ptr noundef nonnull align 1 dereferenceable(1) %12) #3
  %14 = load ptr, ptr %13, align 8, !tbaa !8
  %15 = load i32, ptr %5, align 4, !tbaa !19
  %16 = load i32, ptr %6, align 4, !tbaa !19
  %17 = call i32 @exr_get_attribute_by_index(ptr noundef %14, i32 noundef %15, i32 noundef 0, i32 noundef %16, ptr noundef %7)
  %18 = icmp ne i32 0, %17
  br i1 %18, label %19, label %53

19:                                               ; preds = %3
  br label %20

20:                                               ; preds = %19
  call void @_Z13iex_debugTrapv()
  call void @llvm.lifetime.start.p0(i64 392, ptr %8) #3
  call void @_ZNSt7__cxx1118basic_stringstreamIcSt11char_traitsIcESaIcEEC1Ev(ptr noundef nonnull align 8 dereferenceable(128) %8)
  %21 = getelementptr inbounds i8, ptr %8, i64 16
  %22 = invoke noundef nonnull align 8 dereferenceable(8) ptr @_ZStlsISt11char_traitsIcEERSt13basic_ostreamIcT_ES5_PKc(ptr noundef nonnull align 8 dereferenceable(8) %21, ptr noundef @.str.16)
          to label %23 unwind label %42

23:                                               ; preds = %20
  %24 = load i32, ptr %6, align 4, !tbaa !19
  %25 = invoke noundef nonnull align 8 dereferenceable(8) ptr @_ZNSolsEi(ptr noundef nonnull align 8 dereferenceable(8) %22, i32 noundef %24)
          to label %26 unwind label %42

26:                                               ; preds = %23
  %27 = invoke noundef nonnull align 8 dereferenceable(8) ptr @_ZStlsISt11char_traitsIcEERSt13basic_ostreamIcT_ES5_PKc(ptr noundef nonnull align 8 dereferenceable(8) %25, ptr noundef @.str.17)
          to label %28 unwind label %42

28:                                               ; preds = %26
  %29 = load i32, ptr %5, align 4, !tbaa !19
  %30 = invoke noundef nonnull align 8 dereferenceable(8) ptr @_ZNSolsEi(ptr noundef nonnull align 8 dereferenceable(8) %27, i32 noundef %29)
          to label %31 unwind label %42

31:                                               ; preds = %28
  %32 = invoke noundef nonnull align 8 dereferenceable(8) ptr @_ZStlsISt11char_traitsIcEERSt13basic_ostreamIcT_ES5_PKc(ptr noundef nonnull align 8 dereferenceable(8) %30, ptr noundef @.str.11)
          to label %33 unwind label %42

33:                                               ; preds = %31
  %34 = invoke noundef ptr @_ZNK7Imf_3_47Context8fileNameEv(ptr noundef nonnull align 8 dereferenceable(16) %11)
          to label %35 unwind label %42

35:                                               ; preds = %33
  %36 = invoke noundef nonnull align 8 dereferenceable(8) ptr @_ZStlsISt11char_traitsIcEERSt13basic_ostreamIcT_ES5_PKc(ptr noundef nonnull align 8 dereferenceable(8) %32, ptr noundef %34)
          to label %37 unwind label %42

37:                                               ; preds = %35
  %38 = invoke noundef nonnull align 8 dereferenceable(8) ptr @_ZStlsISt11char_traitsIcEERSt13basic_ostreamIcT_ES5_PKc(ptr noundef nonnull align 8 dereferenceable(8) %36, ptr noundef @.str.9)
          to label %39 unwind label %42

39:                                               ; preds = %37
  %40 = call ptr @__cxa_allocate_exception(i64 72) #3
  invoke void @_ZN7Iex_3_46ArgExcC1ERNSt7__cxx1118basic_stringstreamIcSt11char_traitsIcESaIcEEE(ptr noundef nonnull align 8 dereferenceable(72) %40, ptr noundef nonnull align 8 dereferenceable(128) %8)
          to label %41 unwind label %46

41:                                               ; preds = %39
  invoke void @__cxa_throw(ptr %40, ptr @_ZTIN7Iex_3_46ArgExcE, ptr @_ZN7Iex_3_46ArgExcD1Ev) #23
          to label %60 unwind label %42

42:                                               ; preds = %41, %37, %35, %33, %31, %28, %26, %23, %20
  %43 = landingpad { ptr, i32 }
          cleanup
  %44 = extractvalue { ptr, i32 } %43, 0
  store ptr %44, ptr %9, align 8
  %45 = extractvalue { ptr, i32 } %43, 1
  store i32 %45, ptr %10, align 4
  br label %50

46:                                               ; preds = %39
  %47 = landingpad { ptr, i32 }
          cleanup
  %48 = extractvalue { ptr, i32 } %47, 0
  store ptr %48, ptr %9, align 8
  %49 = extractvalue { ptr, i32 } %47, 1
  store i32 %49, ptr %10, align 4
  call void @__cxa_free_exception(ptr %40) #3
  br label %50

50:                                               ; preds = %46, %42
  call void @_ZNSt7__cxx1118basic_stringstreamIcSt11char_traitsIcESaIcEED1Ev(ptr noundef nonnull align 8 dereferenceable(128) %8) #3
  call void @llvm.lifetime.end.p0(i64 392, ptr %8) #3
  call void @llvm.lifetime.end.p0(i64 8, ptr %7) #3
  br label %55

51:                                               ; No predecessors!
  br label %52

52:                                               ; preds = %51
  br label %53

53:                                               ; preds = %52, %3
  %54 = load ptr, ptr %7, align 8, !tbaa !41
  call void @llvm.lifetime.end.p0(i64 8, ptr %7) #3
  ret ptr %54

55:                                               ; preds = %50
  %56 = load ptr, ptr %9, align 8
  %57 = load i32, ptr %10, align 4
  %58 = insertvalue { ptr, i32 } poison, ptr %56, 0
  %59 = insertvalue { ptr, i32 } %58, i32 %57, 1
  resume { ptr, i32 } %59

60:                                               ; preds = %41
  unreachable
}