; Function Attrs: mustprogress uwtable
define noundef ptr @_ZNK7Imf_3_47Context7getAttrEii(ptr noundef nonnull readonly align 8 captures(none) dereferenceable(16) %0, i32 noundef %1, i32 noundef %2) local_unnamed_addr #3 align 2 personality ptr @__gxx_personality_v0 {
  %4 = alloca ptr, align 8
  %5 = alloca %"class.std::__cxx11::basic_stringstream", align 8
  call void @llvm.lifetime.start.p0(i64 8, ptr nonnull %4) #30
  store ptr null, ptr %4, align 8, !tbaa !30
  %6 = load ptr, ptr %0, align 8, !tbaa !8
  %7 = load ptr, ptr %6, align 8, !tbaa !3
  %8 = call i32 @exr_get_attribute_by_index(ptr noundef %7, i32 noundef %1, i32 noundef 0, i32 noundef %2, ptr noundef nonnull %4)
  %.not = icmp eq i32 %8, 0
  br i1 %.not, label %30, label %9

9:                                                ; preds = %3
  call void @_Z13iex_debugTrapv()
  call void @llvm.lifetime.start.p0(i64 392, ptr nonnull %5) #30
  call void @_ZNSt7__cxx1118basic_stringstreamIcSt11char_traitsIcESaIcEEC1Ev(ptr noundef nonnull align 8 dereferenceable(128) %5)
  %10 = getelementptr inbounds nuw i8, ptr %5, i64 16
  %11 = invoke noundef nonnull align 8 dereferenceable(8) ptr @_ZSt16__ostream_insertIcSt11char_traitsIcEERSt13basic_ostreamIT_T0_ES6_PKS3_l(ptr noundef nonnull align 8 dereferenceable(8) %10, ptr noundef nonnull @.str.16, i64 noundef 30)
          to label %_ZStlsISt11char_traitsIcEERSt13basic_ostreamIcT_ES5_PKc.exit unwind label %25

_ZStlsISt11char_traitsIcEERSt13basic_ostreamIcT_ES5_PKc.exit: ; preds = %9
  %12 = invoke noundef nonnull align 8 dereferenceable(8) ptr @_ZNSolsEi(ptr noundef nonnull align 8 dereferenceable(8) %10, i32 noundef %2)
          to label %13 unwind label %25

13:                                               ; preds = %_ZStlsISt11char_traitsIcEERSt13basic_ostreamIcT_ES5_PKc.exit
  %14 = invoke noundef nonnull align 8 dereferenceable(8) ptr @_ZSt16__ostream_insertIcSt11char_traitsIcEERSt13basic_ostreamIT_T0_ES6_PKS3_l(ptr noundef nonnull align 8 dereferenceable(8) %12, ptr noundef nonnull @.str.17, i64 noundef 10)
          to label %_ZStlsISt11char_traitsIcEERSt13basic_ostreamIcT_ES5_PKc.exit8 unwind label %25

_ZStlsISt11char_traitsIcEERSt13basic_ostreamIcT_ES5_PKc.exit8: ; preds = %13
  %15 = invoke noundef nonnull align 8 dereferenceable(8) ptr @_ZNSolsEi(ptr noundef nonnull align 8 dereferenceable(8) %12, i32 noundef %1)
          to label %16 unwind label %25

16:                                               ; preds = %_ZStlsISt11char_traitsIcEERSt13basic_ostreamIcT_ES5_PKc.exit8
  %17 = invoke noundef nonnull align 8 dereferenceable(8) ptr @_ZSt16__ostream_insertIcSt11char_traitsIcEERSt13basic_ostreamIT_T0_ES6_PKS3_l(ptr noundef nonnull align 8 dereferenceable(8) %15, ptr noundef nonnull @.str.11, i64 noundef 10)
          to label %_ZStlsISt11char_traitsIcEERSt13basic_ostreamIcT_ES5_PKc.exit9 unwind label %25

_ZStlsISt11char_traitsIcEERSt13basic_ostreamIcT_ES5_PKc.exit9: ; preds = %16
  %18 = invoke noundef ptr @_ZNK7Imf_3_47Context8fileNameEv(ptr noundef nonnull align 8 dereferenceable(16) %0)
          to label %19 unwind label %25

19:                                               ; preds = %_ZStlsISt11char_traitsIcEERSt13basic_ostreamIcT_ES5_PKc.exit9
  %20 = invoke noundef nonnull align 8 dereferenceable(8) ptr @_ZStlsISt11char_traitsIcEERSt13basic_ostreamIcT_ES5_PKc(ptr noundef nonnull align 8 dereferenceable(8) %15, ptr noundef %18)
          to label %21 unwind label %25

21:                                               ; preds = %19
  %22 = invoke noundef nonnull align 8 dereferenceable(8) ptr @_ZSt16__ostream_insertIcSt11char_traitsIcEERSt13basic_ostreamIT_T0_ES6_PKS3_l(ptr noundef nonnull align 8 dereferenceable(8) %20, ptr noundef nonnull @.str.9, i64 noundef 1)
          to label %_ZStlsISt11char_traitsIcEERSt13basic_ostreamIcT_ES5_PKc.exit10 unwind label %25

_ZStlsISt11char_traitsIcEERSt13basic_ostreamIcT_ES5_PKc.exit10: ; preds = %21
  %23 = call ptr @__cxa_allocate_exception(i64 72) #30
  invoke void @_ZN7Iex_3_46ArgExcC1ERNSt7__cxx1118basic_stringstreamIcSt11char_traitsIcESaIcEEE(ptr noundef nonnull align 8 dereferenceable(72) %23, ptr noundef nonnull align 8 dereferenceable(128) %5)
          to label %24 unwind label %27

24:                                               ; preds = %_ZStlsISt11char_traitsIcEERSt13basic_ostreamIcT_ES5_PKc.exit10
  invoke void @__cxa_throw(ptr nonnull %23, ptr nonnull @_ZTIN7Iex_3_46ArgExcE, ptr nonnull @_ZN7Iex_3_46ArgExcD1Ev) #32
          to label %32 unwind label %25

25:                                               ; preds = %21, %16, %13, %9, %24, %19, %_ZStlsISt11char_traitsIcEERSt13basic_ostreamIcT_ES5_PKc.exit9, %_ZStlsISt11char_traitsIcEERSt13basic_ostreamIcT_ES5_PKc.exit8, %_ZStlsISt11char_traitsIcEERSt13basic_ostreamIcT_ES5_PKc.exit
  %26 = landingpad { ptr, i32 }
          cleanup
  br label %29

27:                                               ; preds = %_ZStlsISt11char_traitsIcEERSt13basic_ostreamIcT_ES5_PKc.exit10
  %28 = landingpad { ptr, i32 }
          cleanup
  call void @__cxa_free_exception(ptr nonnull %23) #30
  br label %29

29:                                               ; preds = %27, %25
  %.pn = phi { ptr, i32 } [ %26, %25 ], [ %28, %27 ]
  call void @_ZNSt7__cxx1118basic_stringstreamIcSt11char_traitsIcESaIcEED1Ev(ptr noundef nonnull align 8 dereferenceable(128) %5) #30
  call void @llvm.lifetime.end.p0(i64 392, ptr nonnull %5) #30
  call void @llvm.lifetime.end.p0(i64 8, ptr nonnull %4) #30
  resume { ptr, i32 } %.pn

30:                                               ; preds = %3
  %31 = load ptr, ptr %4, align 8, !tbaa !30
  call void @llvm.lifetime.end.p0(i64 8, ptr nonnull %4) #30
  ret ptr %31

32:                                               ; preds = %24
  unreachable
}